target datalayout = "e-m:e-p270:32:32-p271:32:32-p272:64:64-i64:64-i128:128-f80:128-n8:16:32:64-S128"
target triple = "x86_64-pc-linux-gnu"

@iconv_pool_tls_key = internal global i32 0, align 4

; Function Attrs: nounwind uwtable
define internal void @iconv_cache_cleanup_main() #0 {
  %1 = alloca ptr, align 8
  %2 = load i32, ptr @iconv_pool_tls_key, align 4
  %3 = call ptr @pthread_getspecific(i32 noundef %2) #11
  store ptr %3, ptr %1, align 8
  %4 = load ptr, ptr %1, align 8
  %5 = icmp ne ptr %4, null
  br i1 %5, label %6, label %10

6:                                                ; preds = %0
  %7 = load ptr, ptr %1, align 8
  call void @iconv_pool_tls_instance_destroy(ptr noundef %7)
  %8 = load i32, ptr @iconv_pool_tls_key, align 4
  %9 = call i32 @pthread_setspecific(i32 noundef %8, ptr noundef null) #11
  br label %10

10:                                               ; preds = %6, %0
  %11 = load i32, ptr @iconv_pool_tls_key, align 4
  %12 = call i32 @pthread_key_delete(i32 noundef %11) #11
  ret void
}