; Function Attrs: nounwind uwtable
define internal void @iconv_cache_cleanup_main() #0 {
  %1 = load i32, ptr @iconv_pool_tls_key, align 4
  %2 = tail call ptr @pthread_getspecific(i32 noundef %1) #16
  %.not = icmp eq ptr %2, null
  br i1 %.not, label %6, label %3

3:                                                ; preds = %0
  tail call void @iconv_pool_tls_instance_destroy(ptr noundef nonnull %2)
  %4 = load i32, ptr @iconv_pool_tls_key, align 4
  %5 = tail call i32 @pthread_setspecific(i32 noundef %4, ptr noundef null) #16
  br label %6

6:                                                ; preds = %3, %0
  %7 = load i32, ptr @iconv_pool_tls_key, align 4
  %8 = tail call i32 @pthread_key_delete(i32 noundef %7) #16
  ret void
}